; ModuleID = '5/366.c'
source_filename = "5/366.c"
target datalayout = "e-m:e-p270:32:32-p271:32:32-p272:64:64-i64:64-f80:128-n8:16:32:64-S128"
target triple = "x86_64-pc-linux-gnu"

@.str = private unnamed_addr constant [4 x i8] c"%lf\00", align 1
@.str.1 = private unnamed_addr constant [6 x i8] c"%s %s\00", align 1
@.str.2 = private unnamed_addr constant [6 x i8] c"error\00", align 1
@.str.3 = private unnamed_addr constant [4 x i8] c"yes\00", align 1
@.str.4 = private unnamed_addr constant [3 x i8] c"no\00", align 1

; Function Attrs: noinline nounwind uwtable
define dso_local i32 @main() #0 {
  %1 = alloca i32, align 4
  %2 = alloca i32, align 4
  %3 = alloca i32, align 4
  %4 = alloca i32, align 4
  %5 = alloca double, align 8
  %6 = alloca [501 x i8], align 16
  %7 = alloca [501 x i8], align 16
  store i32 0, i32* %1, align 4
  store i32 0, i32* %3, align 4
  %8 = call i32 (i8*, ...) @__isoc99_scanf(i8* getelementptr inbounds ([4 x i8], [4 x i8]* @.str, i64 0, i64 0), double* %5)
  %9 = getelementptr inbounds [501 x i8], [501 x i8]* %6, i64 0, i64 0
  %10 = getelementptr inbounds [501 x i8], [501 x i8]* %7, i64 0, i64 0
  %11 = call i32 (i8*, ...) @__isoc99_scanf(i8* getelementptr inbounds ([6 x i8], [6 x i8]* @.str.1, i64 0, i64 0), i8* %9, i8* %10)
  store i32 0, i32* %4, align 4
  br label %12

12:                                               ; preds = %49, %0
  %13 = load i32, i32* %4, align 4
  %14 = sext i32 %13 to i64
  %15 = getelementptr inbounds [501 x i8], [501 x i8]* %6, i64 0, i64 0
  %16 = call i64 @strlen(i8* %15) #3
  %17 = icmp ult i64 %14, %16
  br i1 %17, label %18, label %52

18:                                               ; preds = %12
  %19 = load i32, i32* %4, align 4
  %20 = sext i32 %19 to i64
  %21 = getelementptr inbounds [501 x i8], [501 x i8]* %6, i64 0, i64 %20
  %22 = load i8, i8* %21, align 1
  %23 = sext i8 %22 to i32
  %24 = icmp ne i32 %23, 65
  br i1 %24, label %25, label %48

25:                                               ; preds = %18
  %26 = load i32, i32* %4, align 4
  %27 = sext i32 %26 to i64
  %28 = getelementptr inbounds [501 x i8], [501 x i8]* %6, i64 0, i64 %27
  %29 = load i8, i8* %28, align 1
  %30 = sext i8 %29 to i32
  %31 = icmp ne i32 %30, 84
  br i1 %31, label %32, label %48

32:                                               ; preds = %25
  %33 = load i32, i32* %4, align 4
  %34 = sext i32 %33 to i64
  %35 = getelementptr inbounds [501 x i8], [501 x i8]* %6, i64 0, i64 %34
  %36 = load i8, i8* %35, align 1
  %37 = sext i8 %36 to i32
  %38 = icmp ne i32 %37, 71
  br i1 %38, label %39, label %48

39:                                               ; preds = %32
  %40 = load i32, i32* %4, align 4
  %41 = sext i32 %40 to i64
  %42 = getelementptr inbounds [501 x i8], [501 x i8]* %6, i64 0, i64 %41
  %43 = load i8, i8* %42, align 1
  %44 = sext i8 %43 to i32
  %45 = icmp ne i32 %44, 67
  br i1 %45, label %46, label %48

46:                                               ; preds = %39
  %47 = call i32 (i8*, ...) @printf(i8* getelementptr inbounds ([6 x i8], [6 x i8]* @.str.2, i64 0, i64 0))
  store i32 0, i32* %1, align 4
  br label %150

48:                                               ; preds = %39, %32, %25, %18
  br label %49

49:                                               ; preds = %48
  %50 = load i32, i32* %4, align 4
  %51 = add nsw i32 %50, 1
  store i32 %51, i32* %4, align 4
  br label %12

52:                                               ; preds = %12
  store i32 0, i32* %4, align 4
  br label %53

53:                                               ; preds = %90, %52
  %54 = load i32, i32* %4, align 4
  %55 = sext i32 %54 to i64
  %56 = getelementptr inbounds [501 x i8], [501 x i8]* %7, i64 0, i64 0
  %57 = call i64 @strlen(i8* %56) #3
  %58 = icmp ult i64 %55, %57
  br i1 %58, label %59, label %93

59:                                               ; preds = %53
  %60 = load i32, i32* %4, align 4
  %61 = sext i32 %60 to i64
  %62 = getelementptr inbounds [501 x i8], [501 x i8]* %7, i64 0, i64 %61
  %63 = load i8, i8* %62, align 1
  %64 = sext i8 %63 to i32
  %65 = icmp ne i32 %64, 65
  br i1 %65, label %66, label %89

66:                                               ; preds = %59
  %67 = load i32, i32* %4, align 4
  %68 = sext i32 %67 to i64
  %69 = getelementptr inbounds [501 x i8], [501 x i8]* %7, i64 0, i64 %68
  %70 = load i8, i8* %69, align 1
  %71 = sext i8 %70 to i32
  %72 = icmp ne i32 %71, 84
  br i1 %72, label %73, label %89

73:                                               ; preds = %66
  %74 = load i32, i32* %4, align 4
  %75 = sext i32 %74 to i64
  %76 = getelementptr inbounds [501 x i8], [501 x i8]* %7, i64 0, i64 %75
  %77 = load i8, i8* %76, align 1
  %78 = sext i8 %77 to i32
  %79 = icmp ne i32 %78, 71
  br i1 %79, label %80, label %89

80:                                               ; preds = %73
  %81 = load i32, i32* %4, align 4
  %82 = sext i32 %81 to i64
  %83 = getelementptr inbounds [501 x i8], [501 x i8]* %7, i64 0, i64 %82
  %84 = load i8, i8* %83, align 1
  %85 = sext i8 %84 to i32
  %86 = icmp ne i32 %85, 67
  br i1 %86, label %87, label %89

87:                                               ; preds = %80
  %88 = call i32 (i8*, ...) @printf(i8* getelementptr inbounds ([6 x i8], [6 x i8]* @.str.2, i64 0, i64 0))
  store i32 0, i32* %1, align 4
  br label %150

89:                                               ; preds = %80, %73, %66, %59
  br label %90

90:                                               ; preds = %89
  %91 = load i32, i32* %4, align 4
  %92 = add nsw i32 %91, 1
  store i32 %92, i32* %4, align 4
  br label %53

93:                                               ; preds = %53
  %94 = getelementptr inbounds [501 x i8], [501 x i8]* %6, i64 0, i64 0
  %95 = call i64 @strlen(i8* %94) #3
  %96 = getelementptr inbounds [501 x i8], [501 x i8]* %7, i64 0, i64 0
  %97 = call i64 @strlen(i8* %96) #3
  %98 = icmp ne i64 %95, %97
  br i1 %98, label %99, label %101

99:                                               ; preds = %93
  %100 = call i32 (i8*, ...) @printf(i8* getelementptr inbounds ([6 x i8], [6 x i8]* @.str.2, i64 0, i64 0))
  br label %149

101:                                              ; preds = %93
  %102 = getelementptr inbounds [501 x i8], [501 x i8]* %6, i64 0, i64 0
  %103 = call i64 @strlen(i8* %102) #3
  %104 = getelementptr inbounds [501 x i8], [501 x i8]* %7, i64 0, i64 0
  %105 = call i64 @strlen(i8* %104) #3
  %106 = icmp eq i64 %103, %105
  br i1 %106, label %107, label %148

107:                                              ; preds = %101
  %108 = getelementptr inbounds [501 x i8], [501 x i8]* %7, i64 0, i64 0
  %109 = call i64 @strlen(i8* %108) #3
  %110 = trunc i64 %109 to i32
  store i32 %110, i32* %2, align 4
  store i32 0, i32* %4, align 4
  br label %111

111:                                              ; preds = %131, %107
  %112 = load i32, i32* %4, align 4
  %113 = load i32, i32* %2, align 4
  %114 = icmp slt i32 %112, %113
  br i1 %114, label %115, label %134

115:                                              ; preds = %111
  %116 = load i32, i32* %4, align 4
  %117 = sext i32 %116 to i64
  %118 = getelementptr inbounds [501 x i8], [501 x i8]* %6, i64 0, i64 %117
  %119 = load i8, i8* %118, align 1
  %120 = sext i8 %119 to i32
  %121 = load i32, i32* %4, align 4
  %122 = sext i32 %121 to i64
  %123 = getelementptr inbounds [501 x i8], [501 x i8]* %7, i64 0, i64 %122
  %124 = load i8, i8* %123, align 1
  %125 = sext i8 %124 to i32
  %126 = icmp eq i32 %120, %125
  br i1 %126, label %127, label %130

127:                                              ; preds = %115
  %128 = load i32, i32* %3, align 4
  %129 = add nsw i32 %128, 1
  store i32 %129, i32* %3, align 4
  br label %130

130:                                              ; preds = %127, %115
  br label %131

131:                                              ; preds = %130
  %132 = load i32, i32* %4, align 4
  %133 = add nsw i32 %132, 1
  store i32 %133, i32* %4, align 4
  br label %111

134:                                              ; preds = %111
  %135 = load i32, i32* %3, align 4
  %136 = sitofp i32 %135 to double
  %137 = fmul double 1.000000e+00, %136
  %138 = load i32, i32* %2, align 4
  %139 = sitofp i32 %138 to double
  %140 = fdiv double %137, %139
  %141 = load double, double* %5, align 8
  %142 = fcmp ogt double %140, %141
  br i1 %142, label %143, label %145

143:                                              ; preds = %134
  %144 = call i32 (i8*, ...) @printf(i8* getelementptr inbounds ([4 x i8], [4 x i8]* @.str.3, i64 0, i64 0))
  br label %147

145:                                              ; preds = %134
  %146 = call i32 (i8*, ...) @printf(i8* getelementptr inbounds ([3 x i8], [3 x i8]* @.str.4, i64 0, i64 0))
  br label %147

147:                                              ; preds = %145, %143
  br label %148

148:                                              ; preds = %147, %101
  br label %149

149:                                              ; preds = %148, %99
  store i32 0, i32* %1, align 4
  br label %150

150:                                              ; preds = %149, %87, %46
  %151 = load i32, i32* %1, align 4
  ret i32 %151
}

declare dso_local i32 @__isoc99_scanf(i8*, ...) #1

; Function Attrs: nounwind readonly
declare dso_local i64 @strlen(i8*) #2

declare dso_local i32 @printf(i8*, ...) #1


!llvm.module.flags = !{!0}
!llvm.ident = !{!1}

!0 = !{i32 1, !"wchar_size", i32 4}
!1 = !{!"clang version 10.0.0-4ubuntu1 "}
